target datalayout = "e-m:e-p270:32:32-p271:32:32-p272:64:64-i64:64-i128:128-f80:128-n8:16:32:64-S128"
target triple = "x86_64-pc-linux-gnu"

%"struct.duckdb_zstd::ZDICT_cover_params_t" = type { i32, i32, i32, i32, double, i32, i32, %"struct.duckdb_zstd::ZDICT_params_t" }
%"struct.duckdb_zstd::ZDICT_params_t" = type { i32, i32, i32 }
%"struct.duckdb_zstd::COVER_best_s" = type { i32, i32, i64, ptr, i64, %"struct.duckdb_zstd::ZDICT_cover_params_t", i64 }

; Function Attrs: mustprogress nounwind uwtable
define void @_ZN11duckdb_zstd16COVER_best_startEPNS_12COVER_best_sE(ptr noundef %0) #0 {
  %2 = alloca ptr, align 8
  store ptr %0, ptr %2, align 8, !tbaa !68
  %3 = load ptr, ptr %2, align 8, !tbaa !68
  %4 = icmp ne ptr %3, null
  br i1 %4, label %6, label %5

5:                                                ; preds = %1
  br label %11

6:                                                ; preds = %1
  %7 = load ptr, ptr %2, align 8, !tbaa !68
  %8 = getelementptr inbounds nuw %"struct.duckdb_zstd::COVER_best_s", ptr %7, i32 0, i32 2
  %9 = load i64, ptr %8, align 8, !tbaa !70
  %10 = add i64 %9, 1
  store i64 %10, ptr %8, align 8, !tbaa !70
  br label %11

11:                                               ; preds = %6, %5
  ret void
}