; Function Attrs: mustprogress nofree norecurse nosync nounwind willreturn memory(argmem: readwrite) uwtable
define void @_ZN11duckdb_zstd16COVER_best_startEPNS_12COVER_best_sE(ptr noundef captures(address_is_null) %0) local_unnamed_addr #14 {
  %.not = icmp eq ptr %0, null
  br i1 %.not, label %6, label %2

2:                                                ; preds = %1
  %3 = getelementptr inbounds nuw i8, ptr %0, i64 8
  %4 = load i64, ptr %3, align 8, !tbaa !64
  %5 = add i64 %4, 1
  store i64 %5, ptr %3, align 8, !tbaa !64
  br label %6

6:                                                ; preds = %1, %2
  ret void
}